Archive member included because of file (symbol)

/usr/lib/libgcc.a(_umoddi3.o)
                              ../lib/console.o (__umoddi3)
/usr/lib/libgcc.a(_udivdi3.o)
                              ../lib/console.o (__udivdi3)

Allocating common symbols
Common symbol       size              file

mbi                 0x4               init.o
stack               0x4000            boot.o
unit_list_head      0x4               ../kern/memory.o

Memory Configuration

Name             Origin             Length             Attributes
*default*        0x0000000000000000 0xffffffffffffffff

Linker script and memory map

                0x0000000000100000                . = 0x100000

.text           0x0000000000100000     0x18e7
 *(.text)
 .text          0x0000000000100000       0x3a boot.o
                0x0000000000100000                _start
                0x0000000000100000                start
 *fill*         0x000000000010003a 0x810610000000002 00
 .text          0x000000000010003c      0x1e4 init.o
                0x000000000010003c                arch_init
 .text          0x0000000000100220      0x2e0 segment.o
                0x000000000010032e                gdt_set_segment
                0x0000000000100458                gdt_get_segment
                0x00000000001004ea                gdt_get_gate
                0x0000000000100220                gdt_init
                0x000000000010046e                gdt_set_gate
                0x00000000001003d8                gdt_set_tss
                0x00000000001002ac                gdt_dump
 .text          0x0000000000100500      0x140 console.o
                0x00000000001005ab                putchar
                0x0000000000100636                getchar
                0x0000000000100500                cls
 .text          0x0000000000100640       0x17 thread.o
                0x0000000000100640                md_thread_create
 *fill*         0x0000000000100657 0x810610000000001 00
 .text          0x0000000000100658       0x1a memory.o
                0x0000000000100658                md_memory_head
                0x0000000000100662                md_memory_tail
 *fill*         0x0000000000100672 0x810610000000002 00
 .text          0x0000000000100674       0x42 locore.o
                0x0000000000100674                md_thread_switch
 *fill*         0x00000000001006b6 0x810610000000002 00
 .text          0x00000000001006b8      0x1e2 ../lib/string.o
                0x0000000000100782                strcpy
                0x0000000000100729                memcpy
                0x0000000000100853                strncmp
                0x00000000001007a8                strncpy
                0x00000000001006d6                memset
                0x0000000000100819                strcmp
                0x00000000001006b8                strlen
 *fill*         0x000000000010089a 0x810610000000002 00
 .text          0x000000000010089c      0x43e ../lib/console.o
                0x0000000000100b6c                printf
                0x0000000000100ae2                puts
                0x0000000000100b39                getns
                0x0000000000100a6e                putx
                0x0000000000100b0b                putns
                0x0000000000100957                putu
                0x00000000001009df                putlu
                0x000000000010089c                putd
 *fill*         0x0000000000100cda 0x810610000000002 00
 .text          0x0000000000100cdc       0x8c ../kern/main.o
                0x0000000000100d4b                thread2
                0x0000000000100cdc                main
                0x0000000000100d2e                thread1
 .text          0x0000000000100d68      0x60f ../kern/memory.o
                0x00000000001012f8                malloc_dump
                0x0000000000100e21                malloc
                0x0000000000100fa1                calloc
                0x0000000000100d68                memory_init
                0x0000000000100fe4                free
 *fill*         0x0000000000101377 0x810610000000001 00
 .text          0x0000000000101378      0x2f6 ../kern/thread.o
                0x0000000000101378                thread_init
                0x00000000001014bf                thread_wakeup
                0x000000000010162f                thread_switch
                0x0000000000101554                thread_sleep
                0x000000000010157b                thread_yield
                0x00000000001013ba                thread_self
                0x0000000000101488                thread_destroy
                0x00000000001013c4                thread_create
 *fill*         0x000000000010166e 0x810610000000002 00
 .text          0x0000000000101670      0x18a /usr/lib/libgcc.a(_umoddi3.o)
                0x0000000000101670                __umoddi3
 *fill*         0x00000000001017fa 0x810610000000002 00
 .text          0x00000000001017fc       0xeb /usr/lib/libgcc.a(_udivdi3.o)
                0x00000000001017fc                __udivdi3

.rodata         0x00000000001018e7       0x81
 *(.rodata)
 .rodata        0x00000000001018e7       0x16 ../lib/string.o
 .rodata        0x00000000001018fd       0x42 ../kern/memory.o
 .rodata        0x000000000010193f       0x29 ../kern/thread.o

.rodata.str1.1  0x0000000000101968      0x1cf
 .rodata.str1.1
                0x0000000000101968       0x79 init.o
 .rodata.str1.1
                0x00000000001019e1        0xd segment.o
                                          0xf (size before relaxing)
 .rodata.str1.1
                0x00000000001019ee       0x41 ../lib/string.o
 .rodata.str1.1
                0x0000000000101a2f       0x1f ../lib/console.o
 .rodata.str1.1
                0x0000000000101a4e       0x3c ../kern/main.o
 .rodata.str1.1
                0x0000000000101a8a       0x73 ../kern/memory.o
                                         0x81 (size before relaxing)
 .rodata.str1.1
                0x0000000000101afd       0x3a ../kern/thread.o

.rodata.str1.4  0x0000000000101b38      0x1b6
 .rodata.str1.4
                0x0000000000101b38      0x160 init.o
 .rodata.str1.4
                0x0000000000101c98       0x1f ../kern/main.o
 *fill*         0x0000000000101cb7 0xbfbfe85000000001 00
 .rodata.str1.4
                0x0000000000101cb8       0x36 ../kern/memory.o

.data           0x0000000000101cf0        0x0
 *(.data)
                0x0000000000101cf0                _edata = .

.bss            0x0000000000101d00     0xc088
 *(.dynbss)
 *(.bss)
 .bss           0x0000000000101d00     0x8068 segment.o
 .bss           0x0000000000109d68        0xc console.o
 .bss           0x0000000000109d74        0xc ../kern/thread.o
 *(.COMMON)
 COMMON         0x0000000000109d80     0x4000 boot.o
                                          0x0 (size before relaxing)
                0x0000000000109d80                stack
 COMMON         0x000000000010dd80        0x4 init.o
                                          0x0 (size before relaxing)
                0x000000000010dd80                mbi
 COMMON         0x000000000010dd84        0x4 ../kern/memory.o
                                          0x0 (size before relaxing)
                0x000000000010dd84                unit_list_head

.rel.dyn
                0x000000000010dd88                _end = .
LOAD boot.o
LOAD init.o
LOAD segment.o
LOAD console.o
LOAD thread.o
LOAD memory.o
LOAD locore.o
LOAD ../lib/string.o
LOAD ../lib/console.o
LOAD ../kern/main.o
LOAD ../kern/memory.o
LOAD ../kern/thread.o
LOAD /usr/lib/libgcc.a
OUTPUT(shiitake elf32-i386-freebsd)

.debug_line     0x0000000000000000      0x6d5
 .debug_line    0x0000000000000000       0x40 boot.o
 .debug_line    0x0000000000000040       0x7c init.o
 .debug_line    0x00000000000000bc       0xca segment.o
 .debug_line    0x0000000000000186       0x5c console.o
 .debug_line    0x00000000000001e2       0x7a thread.o
 .debug_line    0x000000000000025c       0x50 memory.o
 .debug_line    0x00000000000002ac       0x4b locore.o
 .debug_line    0x00000000000002f7       0x6d ../lib/string.o
 .debug_line    0x0000000000000364       0xe6 ../lib/console.o
 .debug_line    0x000000000000044a       0x49 ../kern/main.o
 .debug_line    0x0000000000000493      0x10e ../kern/memory.o
 .debug_line    0x00000000000005a1      0x134 ../kern/thread.o

.debug_info     0x0000000000000000     0x2515
 .debug_info    0x0000000000000000       0x5c boot.o
 .debug_info    0x000000000000005c      0x373 init.o
 .debug_info    0x00000000000003cf      0x74b segment.o
 .debug_info    0x0000000000000b1a      0x154 console.o
 .debug_info    0x0000000000000c6e      0x302 thread.o
 .debug_info    0x0000000000000f70      0x1f0 memory.o
 .debug_info    0x0000000000001160       0x5e locore.o
 .debug_info    0x00000000000011be      0x2d3 ../lib/string.o
 .debug_info    0x0000000000001491      0x2cb ../lib/console.o
 .debug_info    0x000000000000175c       0xd0 ../kern/main.o
 .debug_info    0x000000000000182c      0x570 ../kern/memory.o
 .debug_info    0x0000000000001d9c      0x779 ../kern/thread.o

.debug_abbrev   0x0000000000000000      0xa4a
 .debug_abbrev  0x0000000000000000       0x14 boot.o
 .debug_abbrev  0x0000000000000014       0xf0 init.o
 .debug_abbrev  0x0000000000000104      0x15c segment.o
 .debug_abbrev  0x0000000000000260       0xce console.o
 .debug_abbrev  0x000000000000032e       0xd7 thread.o
 .debug_abbrev  0x0000000000000405       0xbc memory.o
 .debug_abbrev  0x00000000000004c1       0x14 locore.o
 .debug_abbrev  0x00000000000004d5       0xc2 ../lib/string.o
 .debug_abbrev  0x0000000000000597       0xea ../lib/console.o
 .debug_abbrev  0x0000000000000681       0x67 ../kern/main.o
 .debug_abbrev  0x00000000000006e8      0x177 ../kern/memory.o
 .debug_abbrev  0x000000000000085f      0x1eb ../kern/thread.o

.debug_aranges  0x0000000000000000      0x180
 .debug_aranges
                0x0000000000000000       0x20 boot.o
 .debug_aranges
                0x0000000000000020       0x20 init.o
 .debug_aranges
                0x0000000000000040       0x20 segment.o
 .debug_aranges
                0x0000000000000060       0x20 console.o
 .debug_aranges
                0x0000000000000080       0x20 thread.o
 .debug_aranges
                0x00000000000000a0       0x20 memory.o
 .debug_aranges
                0x00000000000000c0       0x20 locore.o
 .debug_aranges
                0x00000000000000e0       0x20 ../lib/string.o
 .debug_aranges
                0x0000000000000100       0x20 ../lib/console.o
 .debug_aranges
                0x0000000000000120       0x20 ../kern/main.o
 .debug_aranges
                0x0000000000000140       0x20 ../kern/memory.o
 .debug_aranges
                0x0000000000000160       0x20 ../kern/thread.o

.debug_frame    0x0000000000000000      0x704
 .debug_frame   0x0000000000000000       0x48 init.o
 .debug_frame   0x0000000000000048       0xf4 segment.o
 .debug_frame   0x000000000000013c       0x80 console.o
 .debug_frame   0x00000000000001bc       0x2c thread.o
 .debug_frame   0x00000000000001e8       0x44 memory.o
 .debug_frame   0x000000000000022c       0xec ../lib/string.o
 .debug_frame   0x0000000000000318      0x124 ../lib/console.o
 .debug_frame   0x000000000000043c       0x80 ../kern/main.o
 .debug_frame   0x00000000000004bc      0x148 ../kern/memory.o
 .debug_frame   0x0000000000000604      0x100 ../kern/thread.o

.debug_pubnames
                0x0000000000000000      0x33b
 .debug_pubnames
                0x0000000000000000       0x28 init.o
 .debug_pubnames
                0x0000000000000028       0x86 segment.o
 .debug_pubnames
                0x00000000000000ae       0x32 console.o
 .debug_pubnames
                0x00000000000000e0       0x27 thread.o
 .debug_pubnames
                0x0000000000000107       0x40 memory.o
 .debug_pubnames
                0x0000000000000147       0x61 ../lib/string.o
 .debug_pubnames
                0x00000000000001a8       0x5f ../lib/console.o
 .debug_pubnames
                0x0000000000000207       0x33 ../kern/main.o
 .debug_pubnames
                0x000000000000023a       0x64 ../kern/memory.o
 .debug_pubnames
                0x000000000000029e       0x9d ../kern/thread.o

.debug_str      0x0000000000000000      0x769
 .debug_str     0x0000000000000000      0x21e init.o
                                        0x26c (size before relaxing)
 .debug_str     0x000000000000021e      0x21d segment.o
                                        0x326 (size before relaxing)
 .debug_str     0x000000000000043b       0x2f console.o
                                        0x102 (size before relaxing)
 .debug_str     0x000000000000046a       0x58 thread.o
                                        0x1a5 (size before relaxing)
 .debug_str     0x00000000000004c2       0x1e memory.o
                                        0x189 (size before relaxing)
 .debug_str     0x00000000000004e0       0x55 ../lib/string.o
                                        0x11e (size before relaxing)
 .debug_str     0x0000000000000535       0x58 ../lib/console.o
                                        0x12e (size before relaxing)
 .debug_str     0x000000000000058d       0x30 ../kern/main.o
                                         0xf9 (size before relaxing)
 .debug_str     0x00000000000005bd       0xc2 ../kern/memory.o
                                        0x1b1 (size before relaxing)
 .debug_str     0x000000000000067f       0xea ../kern/thread.o
                                        0x29f (size before relaxing)

.comment        0x0000000000000000      0x1bc
 .comment       0x0000000000000000       0x25 init.o
 .comment       0x0000000000000025       0x25 segment.o
 .comment       0x000000000000004a       0x25 console.o
 .comment       0x000000000000006f       0x25 thread.o
 .comment       0x0000000000000094       0x25 memory.o
 .comment       0x00000000000000b9       0x25 ../lib/string.o
 .comment       0x00000000000000de       0x25 ../lib/console.o
 .comment       0x0000000000000103       0x25 ../kern/main.o
 .comment       0x0000000000000128       0x25 ../kern/memory.o
 .comment       0x000000000000014d       0x25 ../kern/thread.o
 .comment       0x0000000000000172       0x25 /usr/lib/libgcc.a(_umoddi3.o)
 .comment       0x0000000000000197       0x25 /usr/lib/libgcc.a(_udivdi3.o)
