Archive member included because of file (symbol)

/usr/local/lib/gcc/mipsel-elf/4.2.4/libgcc.a(_udivdi3.o)
                              ../lib/console.o (__udivdi3)
/usr/local/lib/gcc/mipsel-elf/4.2.4/libgcc.a(_umoddi3.o)
                              ../lib/console.o (__umoddi3)
/usr/local/lib/gcc/mipsel-elf/4.2.4/libgcc.a(_clz.o)
                              /usr/local/lib/gcc/mipsel-elf/4.2.4/libgcc.a(_udivdi3.o) (__clz_tab)

Allocating common symbols
Common symbol       size              file

unit_list_head      0x4               ../kern/memory.o

Discarded input sections

 .reginfo       0x0000000000000000        0x0 utlb_exception.o
 .reginfo       0x0000000000000000        0x0 general_exception.o
 .reginfo       0x0000000000000000        0x0 boot.o
 .reginfo       0x0000000000000000        0x0 reset_exception.o
 .reginfo       0x0000000000000000        0x0 init.o
 .reginfo       0x0000000000000000        0x0 console.o
 .reginfo       0x0000000000000000        0x0 thread.o
 .reginfo       0x0000000000000000        0x0 memory.o
 .reginfo       0x0000000000000000        0x0 switch.o
 .reginfo       0x0000000000000000        0x0 exception.o
 .reginfo       0x0000000000000000        0x0 interrupt.o
 .reginfo       0x0000000000000000        0x0 ../lib/string.o
 .reginfo       0x0000000000000000        0x0 ../lib/console.o
 .reginfo       0x0000000000000000        0x0 ../kern/main.o
 .reginfo       0x0000000000000000        0x0 ../kern/memory.o
 .reginfo       0x0000000000000000        0x0 ../kern/thread.o
 .reginfo       0x0000000000000000        0x0 /usr/local/lib/gcc/mipsel-elf/4.2.4/libgcc.a(_udivdi3.o)
 .reginfo       0x0000000000000000        0x0 /usr/local/lib/gcc/mipsel-elf/4.2.4/libgcc.a(_umoddi3.o)
 .reginfo       0x0000000000000000        0x0 /usr/local/lib/gcc/mipsel-elf/4.2.4/libgcc.a(_clz.o)

Memory Configuration

Name             Origin             Length             Attributes
*default*        0x0000000000000000 0xffffffffffffffff

Linker script and memory map


.utlb_vector    0x0000000080000000        0xc
 utlb_exception.o(.text)
 .text          0x0000000080000000        0xc utlb_exception.o

.general_vector
                0x0000000080000080        0xc
 general_exception.o(.text)
 .text          0x0000000080000080        0xc general_exception.o

.text           0x0000000080030000     0x4588
                0x0000000080030000                _ftext = <code 342> (.)
 boot.o(.text)
 .text          0x0000000080030000       0x60 boot.o
                0x0000000080030000                _start
 *(.text)
 .text          0x0000000080030060        0xc reset_exception.o
 .text          0x000000008003006c       0x38 init.o
                0x000000008003006c                arch_init
 .text          0x00000000800300a4       0x80 console.o
                0x00000000800300a4                putchar
                0x00000000800300dc                getchar
 .text          0x0000000080030124       0x7c thread.o
                0x0000000080030124                md_thread_create
 .text          0x00000000800301a0       0x48 memory.o
                0x00000000800301a0                md_memory_head
                0x00000000800301c4                md_memory_tail
 .text          0x00000000800301e8      0x19c switch.o
                0x00000000800301e8                md_thread_switch
 .text          0x0000000080030384      0x3ec exception.o
                0x0000000080030384                general_exception
                0x0000000080030670                utlb_exception
                0x0000000080030570                reset_exception
 .text          0x0000000080030770      0x638 interrupt.o
                0x0000000080030ce8                handle_reset_exception
                0x0000000080030770                interrupt_init
                0x0000000080030c88                handle_general_exception
                0x0000000080030d48                handle_utlb_exception
                0x00000000800307fc                dump_frame
                0x00000000800307b4                interrupt_execute_handler
 .text          0x0000000080030da8      0x67c ../lib/string.o
                0x0000000080030fdc                strcpy
                0x0000000080030ef8                memcpy
                0x00000000800312fc                strncmp
                0x0000000080031088                strncpy
                0x0000000080030e1c                memset
                0x00000000800311f0                strcmp
                0x0000000080030da8                strlen
 .text          0x0000000080031424      0xc90 ../lib/console.o
                0x0000000080031c1c                printf
                0x0000000080031a3c                puts
                0x0000000080031b50                getns
                0x00000000800318ec                putx
                0x0000000080031ac0                putns
                0x00000000800315f4                putu
                0x0000000080031764                putlu
                0x0000000080031424                putd
 .text          0x00000000800320b4      0x144 ../kern/main.o
                0x00000000800321b8                thread2
                0x00000000800320b4                main
                0x0000000080032178                thread1
 .text          0x00000000800321f8      0xb44 ../kern/memory.o
                0x0000000080032c8c                malloc_dump
                0x0000000080032408                malloc
                0x0000000080032854                calloc
                0x00000000800321f8                memory_init
                0x000000008003290c                free
 .text          0x0000000080032d3c      0x6a4 ../kern/thread.o
                0x0000000080032d3c                thread_init
                0x0000000080033204                thread_wakeup
                0x000000008003333c                thread_switch
                0x0000000080033244                thread_sleep
                0x0000000080033284                thread_yield
                0x0000000080032e00                thread_self
                0x0000000080033164                thread_destroy
                0x0000000080032e24                thread_create
 .text          0x00000000800333e0      0x634 /usr/local/lib/gcc/mipsel-elf/4.2.4/libgcc.a(_udivdi3.o)
                0x00000000800333e0                __udivdi3
 .text          0x0000000080033a14      0x644 /usr/local/lib/gcc/mipsel-elf/4.2.4/libgcc.a(_umoddi3.o)
                0x0000000080033a14                __umoddi3
 .text          0x0000000080034058        0x0 /usr/local/lib/gcc/mipsel-elf/4.2.4/libgcc.a(_clz.o)
                0x0000000080034058                _ecode = <code 342> (.)
 *(.rodata)
 .rodata        0x0000000080034058      0x1ec interrupt.o
 .rodata        0x0000000080034244       0x44 ../lib/string.o
 .rodata        0x0000000080034288       0x28 ../lib/console.o
 .rodata        0x00000000800342b0       0x68 ../kern/main.o
 .rodata        0x0000000080034318      0x104 ../kern/memory.o
 .rodata        0x000000008003441c       0x6c ../kern/thread.o
 .rodata        0x0000000080034488      0x100 /usr/local/lib/gcc/mipsel-elf/4.2.4/libgcc.a(_clz.o)
                0x0000000080034488                __clz_tab
                0x0000000080034588                . = ALIGN (0x8)
                0x0000000080034588                _etext = <code 342> (.)

.eh_frame       0x0000000080034588       0x38
 .eh_frame      0x0000000080034588       0x20 /usr/local/lib/gcc/mipsel-elf/4.2.4/libgcc.a(_udivdi3.o)
 .eh_frame      0x00000000800345a8       0x18 /usr/local/lib/gcc/mipsel-elf/4.2.4/libgcc.a(_umoddi3.o)
                                         0x28 (size before relaxing)

.reset_vector
 reset_exception.o(.text)

.data           0x00000000800345c0       0x28
                0x00000000800345c0                _fdata = <code 342> (.)
 *(.data)
 .data          0x00000000800345c0        0x0 utlb_exception.o
 .data          0x00000000800345c0        0x0 general_exception.o
 .data          0x00000000800345c0        0x0 boot.o
 .data          0x00000000800345c0        0x0 reset_exception.o
 .data          0x00000000800345c0        0x0 init.o
 .data          0x00000000800345c0        0x0 console.o
 .data          0x00000000800345c0        0x0 thread.o
 .data          0x00000000800345c0        0x0 memory.o
 .data          0x00000000800345c0        0x0 switch.o
 .data          0x00000000800345c0        0x0 exception.o
 .data          0x00000000800345c0        0x0 interrupt.o
 .data          0x00000000800345c0        0x0 ../lib/string.o
 .data          0x00000000800345c0        0x0 ../lib/console.o
 .data          0x00000000800345c0        0x0 ../kern/main.o
 .data          0x00000000800345c0        0x0 ../kern/memory.o
 .data          0x00000000800345c0        0x0 ../kern/thread.o
 .data          0x00000000800345c0        0x0 /usr/local/lib/gcc/mipsel-elf/4.2.4/libgcc.a(_udivdi3.o)
 .data          0x00000000800345c0        0x0 /usr/local/lib/gcc/mipsel-elf/4.2.4/libgcc.a(_umoddi3.o)
 .data          0x00000000800345c0        0x0 /usr/local/lib/gcc/mipsel-elf/4.2.4/libgcc.a(_clz.o)
                0x00000000800345c0                . = ALIGN (0x8)
                0x000000008003c5b0                _gp = <code 342> ((. + 0x7ff0))
 *(.lit8)
 *(.lit4)
 *(.sdata)
 .sdata         0x00000000800345c0       0x18 ../lib/string.o
 .sdata         0x00000000800345d8       0x10 ../kern/memory.o
                0x00000000800345e8                . = ALIGN (0x8)
                0x00000000800345e8                _edata = <code 342> (.)
                0x00000000800345e8                _fbss = .

.sbss           0x00000000800345e8       0x10
 *(.sbss)
 .sbss          0x00000000800345e8        0xc ../kern/thread.o
 *(.scommon)
 .scommon       0x00000000800345f4        0x4 ../kern/memory.o
                0x00000000800345f4                unit_list_head

.bss            0x00000000800345f8     0x5000
 *(.bss)
 .bss           0x00000000800345f8        0x0 utlb_exception.o
 .bss           0x00000000800345f8        0x0 general_exception.o
 .bss           0x00000000800345f8        0x0 boot.o
 .bss           0x00000000800345f8        0x0 reset_exception.o
 .bss           0x00000000800345f8        0x0 init.o
 .bss           0x00000000800345f8        0x0 console.o
 .bss           0x00000000800345f8        0x0 thread.o
 .bss           0x00000000800345f8        0x0 memory.o
 .bss           0x00000000800345f8        0x0 switch.o
 .bss           0x00000000800345f8        0x0 exception.o
 .bss           0x00000000800345f8        0x0 interrupt.o
 .bss           0x00000000800345f8        0x0 ../lib/string.o
 .bss           0x00000000800345f8        0x0 ../lib/console.o
 .bss           0x00000000800345f8        0x0 ../kern/main.o
 .bss           0x00000000800345f8        0x0 ../kern/memory.o
 .bss           0x00000000800345f8        0x0 ../kern/thread.o
 .bss           0x00000000800345f8        0x0 /usr/local/lib/gcc/mipsel-elf/4.2.4/libgcc.a(_udivdi3.o)
 .bss           0x00000000800345f8        0x0 /usr/local/lib/gcc/mipsel-elf/4.2.4/libgcc.a(_umoddi3.o)
 .bss           0x00000000800345f8        0x0 /usr/local/lib/gcc/mipsel-elf/4.2.4/libgcc.a(_clz.o)
 *(COMMON)
                0x00000000800345f8                . = ALIGN (0x8)
                0x00000000800395f8                . = (. + 0x5000)
 *fill*         0x00000000800345f8     0x5000 00
                0x00000000800395e8                _sp = (. - 0x10)
                0x00000000800395f8                _end = .

.gptab.sdata
 *(.gptab.data)
 *(.gptab.sdata)

.gptab.sbss
 *(.gptab.bss)
 *(.gptab.sbss)

/DISCARD/
 *(.reginfo)
                0x0000000080034588                PROVIDE (etext, _etext)
                0x00000000800395f8                PROVIDE (edata, .)
                0x00000000800395f8                PROVIDE (end, .)
LOAD boot.o
LOAD init.o
LOAD console.o
LOAD thread.o
LOAD memory.o
LOAD switch.o
LOAD exception.o
LOAD general_exception.o
LOAD interrupt.o
LOAD reset_exception.o
LOAD utlb_exception.o
LOAD ../lib/string.o
LOAD ../lib/console.o
LOAD ../kern/main.o
LOAD ../kern/memory.o
LOAD ../kern/thread.o
LOAD /usr/local/lib/gcc/mipsel-elf/4.2.4/libgcc.a
OUTPUT(shiitake elf32-littlemips)

.pdr            0x0000000000000000      0x800
 .pdr           0x0000000000000000        0x0 utlb_exception.o
 .pdr           0x0000000000000000        0x0 general_exception.o
 .pdr           0x0000000000000000       0x20 boot.o
 .pdr           0x0000000000000020        0x0 reset_exception.o
 .pdr           0x0000000000000020       0x20 init.o
 .pdr           0x0000000000000040       0x40 console.o
 .pdr           0x0000000000000080       0x20 thread.o
 .pdr           0x00000000000000a0       0x40 memory.o
 .pdr           0x00000000000000e0       0x20 switch.o
 .pdr           0x0000000000000100       0x60 exception.o
 .pdr           0x0000000000000160       0xc0 interrupt.o
 .pdr           0x0000000000000220       0xe0 ../lib/string.o
 .pdr           0x0000000000000300      0x100 ../lib/console.o
 .pdr           0x0000000000000400       0x60 ../kern/main.o
 .pdr           0x0000000000000460      0x160 ../kern/memory.o
 .pdr           0x00000000000005c0      0x200 ../kern/thread.o
 .pdr           0x00000000000007c0       0x20 /usr/local/lib/gcc/mipsel-elf/4.2.4/libgcc.a(_udivdi3.o)
 .pdr           0x00000000000007e0       0x20 /usr/local/lib/gcc/mipsel-elf/4.2.4/libgcc.a(_umoddi3.o)
 .pdr           0x0000000000000800        0x0 /usr/local/lib/gcc/mipsel-elf/4.2.4/libgcc.a(_clz.o)

.debug_line     0x0000000000000000      0xb38
 .debug_line    0x0000000000000000       0x3f utlb_exception.o
 .debug_line    0x000000000000003f       0x42 general_exception.o
 .debug_line    0x0000000000000081       0x46 boot.o
 .debug_line    0x00000000000000c7       0x40 reset_exception.o
 .debug_line    0x0000000000000107       0x36 init.o
 .debug_line    0x000000000000013d       0x41 console.o
 .debug_line    0x000000000000017e       0x83 thread.o
 .debug_line    0x0000000000000201       0x3e memory.o
 .debug_line    0x000000000000023f       0x9e switch.o
 .debug_line    0x00000000000002dd      0x113 exception.o
 .debug_line    0x00000000000003f0       0x7b interrupt.o
 .debug_line    0x000000000000046b       0xa2 ../lib/string.o
 .debug_line    0x000000000000050d      0x150 ../lib/console.o
 .debug_line    0x000000000000065d       0x57 ../kern/main.o
 .debug_line    0x00000000000006b4      0x102 ../kern/memory.o
 .debug_line    0x00000000000007b6      0x11a ../kern/thread.o
 .debug_line    0x00000000000008d0      0x105 /usr/local/lib/gcc/mipsel-elf/4.2.4/libgcc.a(_udivdi3.o)
 .debug_line    0x00000000000009d5      0x120 /usr/local/lib/gcc/mipsel-elf/4.2.4/libgcc.a(_umoddi3.o)
 .debug_line    0x0000000000000af5       0x43 /usr/local/lib/gcc/mipsel-elf/4.2.4/libgcc.a(_clz.o)

.debug_info     0x0000000000000000     0x306f
 .debug_info    0x0000000000000000       0x51 utlb_exception.o
 .debug_info    0x0000000000000051       0x54 general_exception.o
 .debug_info    0x00000000000000a5       0x47 boot.o
 .debug_info    0x00000000000000ec       0x52 reset_exception.o
 .debug_info    0x000000000000013e       0x6d init.o
 .debug_info    0x00000000000001ab       0xb0 console.o
 .debug_info    0x000000000000025b      0x49d thread.o
 .debug_info    0x00000000000006f8       0xb9 memory.o
 .debug_info    0x00000000000007b1       0x49 switch.o
 .debug_info    0x00000000000007fa       0x50 exception.o
 .debug_info    0x000000000000084a      0x50a interrupt.o
 .debug_info    0x0000000000000d54      0x385 ../lib/string.o
 .debug_info    0x00000000000010d9      0x392 ../lib/console.o
 .debug_info    0x000000000000146b      0x146 ../kern/main.o
 .debug_info    0x00000000000015b1      0x517 ../kern/memory.o
 .debug_info    0x0000000000001ac8      0x847 ../kern/thread.o
 .debug_info    0x000000000000230f      0x63d /usr/local/lib/gcc/mipsel-elf/4.2.4/libgcc.a(_udivdi3.o)
 .debug_info    0x000000000000294c      0x66c /usr/local/lib/gcc/mipsel-elf/4.2.4/libgcc.a(_umoddi3.o)
 .debug_info    0x0000000000002fb8       0xb7 /usr/local/lib/gcc/mipsel-elf/4.2.4/libgcc.a(_clz.o)

.debug_abbrev   0x0000000000000000      0xaf7
 .debug_abbrev  0x0000000000000000       0x14 utlb_exception.o
 .debug_abbrev  0x0000000000000014       0x14 general_exception.o
 .debug_abbrev  0x0000000000000028       0x14 boot.o
 .debug_abbrev  0x000000000000003c       0x14 reset_exception.o
 .debug_abbrev  0x0000000000000050       0x2c init.o
 .debug_abbrev  0x000000000000007c       0x71 console.o
 .debug_abbrev  0x00000000000000ed       0xba thread.o
 .debug_abbrev  0x00000000000001a7       0x5a memory.o
 .debug_abbrev  0x0000000000000201       0x14 switch.o
 .debug_abbrev  0x0000000000000215       0x14 exception.o
 .debug_abbrev  0x0000000000000229       0xc6 interrupt.o
 .debug_abbrev  0x00000000000002ef       0x9d ../lib/string.o
 .debug_abbrev  0x000000000000038c       0xdc ../lib/console.o
 .debug_abbrev  0x0000000000000468       0x6b ../kern/main.o
 .debug_abbrev  0x00000000000004d3      0x149 ../kern/memory.o
 .debug_abbrev  0x000000000000061c      0x17c ../kern/thread.o
 .debug_abbrev  0x0000000000000798      0x175 /usr/local/lib/gcc/mipsel-elf/4.2.4/libgcc.a(_udivdi3.o)
 .debug_abbrev  0x000000000000090d      0x180 /usr/local/lib/gcc/mipsel-elf/4.2.4/libgcc.a(_umoddi3.o)
 .debug_abbrev  0x0000000000000a8d       0x6a /usr/local/lib/gcc/mipsel-elf/4.2.4/libgcc.a(_clz.o)

.debug_aranges  0x0000000000000000      0x240
 .debug_aranges
                0x0000000000000000       0x20 utlb_exception.o
 .debug_aranges
                0x0000000000000020       0x20 general_exception.o
 .debug_aranges
                0x0000000000000040       0x20 boot.o
 .debug_aranges
                0x0000000000000060       0x20 reset_exception.o
 .debug_aranges
                0x0000000000000080       0x20 init.o
 .debug_aranges
                0x00000000000000a0       0x20 console.o
 .debug_aranges
                0x00000000000000c0       0x20 thread.o
 .debug_aranges
                0x00000000000000e0       0x20 memory.o
 .debug_aranges
                0x0000000000000100       0x20 switch.o
 .debug_aranges
                0x0000000000000120       0x20 exception.o
 .debug_aranges
                0x0000000000000140       0x20 interrupt.o
 .debug_aranges
                0x0000000000000160       0x20 ../lib/string.o
 .debug_aranges
                0x0000000000000180       0x20 ../lib/console.o
 .debug_aranges
                0x00000000000001a0       0x20 ../kern/main.o
 .debug_aranges
                0x00000000000001c0       0x20 ../kern/memory.o
 .debug_aranges
                0x00000000000001e0       0x20 ../kern/thread.o
 .debug_aranges
                0x0000000000000200       0x20 /usr/local/lib/gcc/mipsel-elf/4.2.4/libgcc.a(_udivdi3.o)
 .debug_aranges
                0x0000000000000220       0x20 /usr/local/lib/gcc/mipsel-elf/4.2.4/libgcc.a(_umoddi3.o)

.mdebug.abi32   0x0000000000000000        0x0
 .mdebug.abi32  0x0000000000000000        0x0 init.o
 .mdebug.abi32  0x0000000000000000        0x0 console.o
 .mdebug.abi32  0x0000000000000000        0x0 thread.o
 .mdebug.abi32  0x0000000000000000        0x0 memory.o
 .mdebug.abi32  0x0000000000000000        0x0 interrupt.o
 .mdebug.abi32  0x0000000000000000        0x0 ../lib/string.o
 .mdebug.abi32  0x0000000000000000        0x0 ../lib/console.o
 .mdebug.abi32  0x0000000000000000        0x0 ../kern/main.o
 .mdebug.abi32  0x0000000000000000        0x0 ../kern/memory.o
 .mdebug.abi32  0x0000000000000000        0x0 ../kern/thread.o
 .mdebug.abi32  0x0000000000000000        0x0 /usr/local/lib/gcc/mipsel-elf/4.2.4/libgcc.a(_udivdi3.o)
 .mdebug.abi32  0x0000000000000000        0x0 /usr/local/lib/gcc/mipsel-elf/4.2.4/libgcc.a(_umoddi3.o)
 .mdebug.abi32  0x0000000000000000        0x0 /usr/local/lib/gcc/mipsel-elf/4.2.4/libgcc.a(_clz.o)

.debug_frame    0x0000000000000000      0x754
 .debug_frame   0x0000000000000000       0x2c init.o
 .debug_frame   0x000000000000002c       0x48 console.o
 .debug_frame   0x0000000000000074       0x2c thread.o
 .debug_frame   0x00000000000000a0       0x48 memory.o
 .debug_frame   0x00000000000000e8       0xcc interrupt.o
 .debug_frame   0x00000000000001b4       0xd4 ../lib/string.o
 .debug_frame   0x0000000000000288      0x104 ../lib/console.o
 .debug_frame   0x000000000000038c       0x64 ../kern/main.o
 .debug_frame   0x00000000000003f0      0x14c ../kern/memory.o
 .debug_frame   0x000000000000053c      0x1d0 ../kern/thread.o
 .debug_frame   0x000000000000070c       0x20 /usr/local/lib/gcc/mipsel-elf/4.2.4/libgcc.a(_udivdi3.o)
 .debug_frame   0x000000000000072c       0x28 /usr/local/lib/gcc/mipsel-elf/4.2.4/libgcc.a(_umoddi3.o)

.debug_loc      0x0000000000000000     0x1999
 .debug_loc     0x0000000000000000       0x2b init.o
 .debug_loc     0x000000000000002b       0x56 console.o
 .debug_loc     0x0000000000000081       0x2b thread.o
 .debug_loc     0x00000000000000ac       0x56 memory.o
 .debug_loc     0x0000000000000102      0x104 interrupt.o
 .debug_loc     0x0000000000000206      0x12d ../lib/string.o
 .debug_loc     0x0000000000000333      0x160 ../lib/console.o
 .debug_loc     0x0000000000000493       0x81 ../kern/main.o
 .debug_loc     0x0000000000000514      0x1d9 ../kern/memory.o
 .debug_loc     0x00000000000006ed      0x2b0 ../kern/thread.o
 .debug_loc     0x000000000000099d      0x7c9 /usr/local/lib/gcc/mipsel-elf/4.2.4/libgcc.a(_udivdi3.o)
 .debug_loc     0x0000000000001166      0x833 /usr/local/lib/gcc/mipsel-elf/4.2.4/libgcc.a(_umoddi3.o)

.debug_pubnames
                0x0000000000000000      0x3a1
 .debug_pubnames
                0x0000000000000000       0x20 init.o
 .debug_pubnames
                0x0000000000000020       0x2a console.o
 .debug_pubnames
                0x000000000000004a       0x27 thread.o
 .debug_pubnames
                0x0000000000000071       0x38 memory.o
 .debug_pubnames
                0x00000000000000a9       0xa4 interrupt.o
 .debug_pubnames
                0x000000000000014d       0x61 ../lib/string.o
 .debug_pubnames
                0x00000000000001ae       0x5f ../lib/console.o
 .debug_pubnames
                0x000000000000020d       0x33 ../kern/main.o
 .debug_pubnames
                0x0000000000000240       0x64 ../kern/memory.o
 .debug_pubnames
                0x00000000000002a4       0x9d ../kern/thread.o
 .debug_pubnames
                0x0000000000000341       0x20 /usr/local/lib/gcc/mipsel-elf/4.2.4/libgcc.a(_udivdi3.o)
 .debug_pubnames
                0x0000000000000361       0x20 /usr/local/lib/gcc/mipsel-elf/4.2.4/libgcc.a(_umoddi3.o)
 .debug_pubnames
                0x0000000000000381       0x20 /usr/local/lib/gcc/mipsel-elf/4.2.4/libgcc.a(_clz.o)

.comment        0x0000000000000000       0xea
 .comment       0x0000000000000000       0x12 init.o
 .comment       0x0000000000000012       0x12 console.o
 .comment       0x0000000000000024       0x12 thread.o
 .comment       0x0000000000000036       0x12 memory.o
 .comment       0x0000000000000048       0x12 interrupt.o
 .comment       0x000000000000005a       0x12 ../lib/string.o
 .comment       0x000000000000006c       0x12 ../lib/console.o
 .comment       0x000000000000007e       0x12 ../kern/main.o
 .comment       0x0000000000000090       0x12 ../kern/memory.o
 .comment       0x00000000000000a2       0x12 ../kern/thread.o
 .comment       0x00000000000000b4       0x12 /usr/local/lib/gcc/mipsel-elf/4.2.4/libgcc.a(_udivdi3.o)
 .comment       0x00000000000000c6       0x12 /usr/local/lib/gcc/mipsel-elf/4.2.4/libgcc.a(_umoddi3.o)
 .comment       0x00000000000000d8       0x12 /usr/local/lib/gcc/mipsel-elf/4.2.4/libgcc.a(_clz.o)

.debug_str      0x0000000000000000      0x188
 .debug_str     0x0000000000000000       0x13 interrupt.o
 .debug_str     0x0000000000000013        0xd ../lib/string.o
 .debug_str     0x0000000000000020       0x12 ../kern/memory.o
 .debug_str     0x0000000000000032        0xd ../kern/thread.o
 .debug_str     0x000000000000003f      0x13f /usr/local/lib/gcc/mipsel-elf/4.2.4/libgcc.a(_udivdi3.o)
                                        0x178 (size before relaxing)
 .debug_str     0x000000000000017e        0xa /usr/local/lib/gcc/mipsel-elf/4.2.4/libgcc.a(_umoddi3.o)
                                        0x178 (size before relaxing)
 .debug_str     0x0000000000000000      0x10a /usr/local/lib/gcc/mipsel-elf/4.2.4/libgcc.a(_clz.o)

.debug_ranges   0x0000000000000000      0x280
 .debug_ranges  0x0000000000000000      0x160 /usr/local/lib/gcc/mipsel-elf/4.2.4/libgcc.a(_udivdi3.o)
 .debug_ranges  0x0000000000000160      0x120 /usr/local/lib/gcc/mipsel-elf/4.2.4/libgcc.a(_umoddi3.o)
